; Function Attrs: null_pointer_is_valid sspstrong uwtable
define internal noundef i32 @dissect_kafka_offset_delete_request_topic(ptr noundef %0, ptr noundef %1, ptr noundef %2, i32 noundef %3, i16 signext %4) #0 {
  %6 = alloca ptr, align 8
  %7 = alloca ptr, align 8
  call void @llvm.lifetime.start.p0(i64 8, ptr nonnull %6) #9
  call void @llvm.lifetime.start.p0(i64 8, ptr nonnull %7) #9
  %8 = load i32, ptr @ett_kafka_topic, align 4
  %9 = call ptr @proto_tree_add_subtree(ptr noundef %2, ptr noundef %0, i32 noundef %3, i32 noundef -1, i32 noundef %8, ptr noundef nonnull %6, ptr noundef nonnull @.str.558)
  %10 = load i32, ptr @hf_kafka_topic_name, align 4
  %11 = call fastcc i32 @dissect_kafka_string(ptr noundef %9, i32 noundef %10, ptr noundef %0, ptr noundef %1, i32 noundef %3, i32 noundef 0, ptr noundef null, ptr noundef null)
  %12 = load i32, ptr @ett_kafka_partitions, align 4
  %13 = call ptr @proto_tree_add_subtree(ptr noundef %9, ptr noundef %0, i32 noundef %11, i32 noundef -1, i32 noundef %12, ptr noundef nonnull %7, ptr noundef nonnull @.str.671)
  %14 = call i32 @tvb_get_ntohl(ptr noundef %0, i32 noundef %11)
  %15 = add i32 %11, 4
  %16 = icmp slt i32 %14, -1
  br i1 %16, label %dissect_kafka_array.exit.sink.split, label %17

17:                                               ; preds = %5
  %18 = call i32 @tvb_reported_length_remaining(ptr noundef %0, i32 noundef %15)
  %19 = icmp slt i32 %18, %14
  br i1 %19, label %dissect_kafka_array.exit.sink.split, label %.preheader.i.i15.i

.preheader.i.i15.i:                               ; preds = %17
  %20 = icmp sgt i32 %14, 0
  br i1 %20, label %.preheader, label %dissect_kafka_array.exit

.preheader:                                       ; preds = %.preheader.i.i15.i, %.preheader
  %.02127.i.i21.i = phi i32 [ %24, %.preheader ], [ 0, %.preheader.i.i15.i ]
  %.02226.i.i22.i = phi i32 [ %23, %.preheader ], [ %15, %.preheader.i.i15.i ]
  %21 = load i32, ptr @hf_kafka_partition_id, align 4
  %22 = call ptr @proto_tree_add_item(ptr noundef %13, i32 noundef %21, ptr noundef %0, i32 noundef %.02226.i.i22.i, i32 noundef 4, i32 noundef 0)
  %23 = add i32 %.02226.i.i22.i, 4
  %24 = add nuw nsw i32 %.02127.i.i21.i, 1
  %exitcond.not.i.i23.i = icmp eq i32 %24, %14
  br i1 %exitcond.not.i.i23.i, label %dissect_kafka_array.exit, label %.preheader, !llvm.loop !11

dissect_kafka_array.exit.sink.split:              ; preds = %17, %5
  %25 = call ptr @proto_tree_get_parent(ptr noundef %13)
  %26 = call ptr @expert_add_info(ptr noundef %1, ptr noundef %25, ptr noundef nonnull @ei_kafka_bad_array_length)
  br label %dissect_kafka_array.exit

dissect_kafka_array.exit:                         ; preds = %.preheader, %dissect_kafka_array.exit.sink.split, %.preheader.i.i15.i
  %.0.i = phi i32 [ %15, %.preheader.i.i15.i ], [ %15, %dissect_kafka_array.exit.sink.split ], [ %23, %.preheader ]
  %27 = load ptr, ptr %6, align 8
  call void @proto_item_set_end(ptr noundef %27, ptr noundef %0, i32 noundef %.0.i)
  %28 = load ptr, ptr %7, align 8
  call void @proto_item_set_end(ptr noundef %28, ptr noundef %0, i32 noundef %.0.i)
  call void @llvm.lifetime.end.p0(i64 8, ptr nonnull %7) #9
  call void @llvm.lifetime.end.p0(i64 8, ptr nonnull %6) #9
  ret i32 %.0.i
}